(lp0
(I7
I3
tp1
a(I40
I3
tp2
a(I12
I1
tp3
ag3
ag3
ag3
ag3
ag3
ag3
ag3
ag3
ag3
ag3
ag3
ag3
ag3
ag3
ag3
ag3
ag3
ag3
ag3
ag3
ag3
ag3
ag3
ag3
ag3
ag3
ag3
ag3
ag3
ag3
ag3
ag3
ag3
ag3
ag3
ag3
ag3
ag3
ag3
ag3
ag3
ag3
ag3
ag3
ag3
ag3
ag3
ag3
ag3
ag3
ag3
ag3
ag3
ag3
ag3
ag3
ag3
ag3
ag3
ag3
ag3
ag3
ag3
ag3
ag3
ag3
a(I41
I2
tp4
ag4
ag4
ag4
ag4
ag4
ag4
ag4
ag4
ag4
ag4
ag4
ag4
ag4
ag4
ag4
ag4
ag4
ag4
ag4
ag4
ag4
ag4
ag4
ag4
ag4
ag4
ag4
ag4
ag4
ag4
ag4
ag4
ag4
ag4
ag4
ag4
ag4
ag4
ag4
ag4
ag4
ag4
ag4
ag4
ag4
ag4
ag4
ag4
ag4
ag4
ag4
ag4
ag4
ag4
ag4
ag4
ag4
ag4
ag4
a(I38
I1
tp5
ag5
ag5
ag5
ag5
ag5
ag5
ag5
ag5
ag5
ag5
ag5
ag5
ag5
ag5
ag5
ag5
ag5
ag5
ag5
ag5
ag5
ag5
ag5
ag5
ag5
ag5
ag5
ag5
ag5
ag5
ag5
ag5
ag5
ag5
ag5
ag5
ag5
ag5
ag5
ag5
ag5
ag5
ag5
a(I62
I2
tp6
ag6
ag6
ag6
ag6
ag6
ag6
ag6
ag6
ag6
ag6
ag6
ag6
ag6
ag6
ag6
ag6
ag6
ag6
ag6
ag6
ag6
ag6
ag6
ag6
ag6
ag6
ag6
ag6
ag6
ag6
ag6
ag6
ag6
ag6
ag6
ag6
ag6
ag6
ag6
ag6
ag6
ag6
ag6
ag6
ag6
ag6
ag6
ag6
ag6
ag6
ag6
ag6
ag6
ag6
ag6
ag6
ag6
ag6
ag6
ag6
ag6
ag6
ag6
ag6
ag6
ag6
ag6
ag6
ag6
ag6
ag6
ag6
ag6
ag6
ag6
ag6
ag6
ag6
ag6
ag6
ag6
ag6
ag6
ag6
ag6
ag6
ag6
ag6
ag6
ag6
ag6
ag6
ag6
ag6
ag6
ag6
ag6
ag6
ag6
ag6
ag6
ag6
ag6
ag6
ag6
ag6
ag6
ag6
ag6
ag6
ag6
ag6
ag6
ag6
ag6
ag6
ag6
ag6
ag6
ag6
a(I43
I3
tp7
a(I15
I1
tp8
ag8
ag8
ag8
ag8
ag8
ag8
ag8
ag8
ag8
ag8
ag8
ag8
a(I48
I1
tp9
ag9
ag9
ag9
ag9
ag9
ag9
ag9
ag9
ag9
ag9
ag9
ag9
ag9
ag9
ag9
ag9
ag9
ag9
ag9
ag9
ag9
ag9
ag9
ag9
ag9
ag9
ag9
a(I25
I1
tp10
ag10
ag10
ag10
ag10
ag10
ag10
ag10
ag10
ag10
a(I46
I3
tp11
a(I27
I2
tp12
ag12
ag12
ag12
ag12
ag12
ag12
ag12
ag12
ag12
ag12
ag12
ag12
ag12
ag12
ag12
ag12
ag12
ag12
ag12
ag12
ag12
ag12
ag12
ag12
ag12
ag12
ag12
ag12
ag12
ag12
ag12
ag12
ag12
ag12
ag12
ag12
a(I51
I1
tp13
ag13
ag13
ag13
ag13
ag13
ag13
ag13
ag13
ag13
ag13
ag13
ag13
ag13
ag13
ag13
ag13
ag13
ag13
ag13
ag13
ag13
ag13
ag13
ag13
ag13
ag13
ag13
ag13
ag13
ag13
ag13
ag13
ag13
ag13
ag13
ag13
ag13
ag13
ag13
ag13
ag13
ag13
ag13
ag13
ag13
ag13
ag13
ag13
ag13
ag13
ag13
a(I32
I2
tp14
ag14
ag14
a(I33
I3
tp15
ag15
a(I16
I3
tp16
a(I17
I2
tp17
ag17
ag17
ag17
ag17
ag17
ag17
ag17
ag17
ag17
ag17
ag17
ag17
ag17
ag17
ag17
ag17
ag17
ag17
ag17
ag17
ag17
ag17
ag17
ag17
ag17
ag17
ag17
ag17
ag17
ag17
ag17
ag17
ag17
ag17
ag17
ag17
ag17
ag17
ag17
ag17
ag17
ag17
ag17
ag17
ag17
ag17
ag17
ag17
ag17
ag17
ag17
ag17
ag17
ag17
ag17
ag17
ag17
ag17
ag17
ag17
ag17
ag17
ag17
ag17
ag17
ag17
ag17
ag17
ag17
ag17
ag17
ag17
ag17
ag17
ag17
ag17
ag17
ag17
ag17
a(I14
I1
tp18
ag18
ag18
ag18
ag18
ag18
ag18
ag18
ag18
ag18
ag18
ag18
ag18
ag18
ag18
ag18
ag18
ag18
ag18
ag18
ag18
ag18
ag18
ag18
ag18
ag18
ag18
ag18
ag18
ag18
ag18
ag18
ag18
ag18
ag18
ag18
ag18
ag18
ag18
ag18
ag18
ag18
ag18
ag18
ag18
ag18
ag18
ag18
ag18
ag18
ag18
ag18
ag18
ag18
ag18
ag18
ag18
ag18
ag18
ag18
ag18
ag18
ag18
ag18
ag18
ag18
ag18
ag18
ag18
ag18
ag18
ag18
ag18
ag18
ag18
ag18
ag18
ag18
ag18
ag18
ag18
ag18
ag18
ag18
ag18
ag18
ag18
ag18
ag18
ag18
ag18
ag18
ag18
ag18
ag18
ag18
a(I38
I2
tp19
ag19
ag19
ag19
ag19
ag19
ag19
ag19
ag19
ag19
ag19
ag19
ag19
ag19
ag19
a(I19
I3
tp20
ag20
a(I24
I1
tp21
ag21
ag21
ag21
ag21
ag21
ag21
ag21
ag21
ag21
ag21
ag21
ag21
ag21
ag21
ag21
ag21
ag21
ag21
ag21
a(I1
I1
tp22
ag22
ag22
ag22
ag22
ag22
ag22
ag22
ag22
ag22
ag22
ag22
ag22
ag22
ag22
ag22
ag22
ag22
ag22
ag22
ag22
ag22
ag22
ag22
ag22
ag22
ag22
ag22
ag22
ag22
ag22
ag22
ag22
ag22
ag22
ag22
ag22
ag22
ag22
ag22
ag22
ag22
ag22
ag22
ag22
a(I50
I1
tp23
ag23
ag23
ag23
ag23
ag23
ag23
ag23
ag23
ag23
ag23
ag23
ag23
ag23
ag23
ag23
ag23
ag23
ag23
ag23
ag23
ag23
ag23
ag23
ag23
ag23
a(I22
I3
tp24
a(I3
I2
tp25
ag25
ag25
ag25
ag25
ag25
ag25
ag25
ag25
ag25
ag25
ag25
ag25
ag25
ag25
ag25
ag25
ag25
ag25
ag25
ag25
ag25
ag25
ag25
ag25
ag25
ag25
ag25
ag25
ag25
ag25
ag25
ag25
ag25
ag25
ag25
ag25
ag25
ag25
ag25
ag25
ag25
ag25
ag25
ag25
ag25
ag25
ag25
ag25
ag25
ag25
ag25
ag25
ag25
ag25
ag25
ag25
ag25
ag25
ag25
ag25
ag25
ag25
ag25
ag25
a(I27
I1
tp26
ag26
ag26
ag26
ag26
ag26
ag26
ag26
ag26
ag26
ag26
ag26
ag26
ag26
ag26
ag26
ag26
ag26
ag26
ag26
ag26
ag26
ag26
ag26
ag26
ag26
ag26
ag26
ag26
ag26
ag26
ag26
ag26
ag26
ag26
ag26
ag26
ag26
ag26
ag26
ag26
a(I8
I2
tp27
ag27
ag27
ag27
ag27
ag27
ag27
ag27
ag27
ag27
ag27
ag27
ag27
ag27
ag27
ag27
ag27
ag27
ag27
ag27
ag27
ag27
ag27
ag27
ag27
ag27
ag27
ag27
ag27
ag27
ag27
ag27
ag27
ag27
ag27
ag27
ag27
ag27
ag27
ag27
ag27
ag27
ag27
ag27
ag27
ag27
ag27
ag27
ag27
ag27
ag27
ag27
ag27
ag27
ag27
ag27
ag27
ag27
ag27
ag27
ag27
ag27
ag27
ag27
ag27
ag27
ag27
ag27
ag27
ag27
ag27
ag27
ag27
ag27
ag27
ag27
ag27
ag27
ag27
a(I53
I1
tp28
ag28
ag28
ag28
ag28
ag28
ag28
ag28
ag28
ag28
ag28
ag28
ag28
ag28
ag28
ag28
ag28
a(I9
I3
tp29
a(I58
I3
tp30
a(I55
I2
tp31
ag31
ag31
ag31
ag31
ag31
ag31
ag31
ag31
ag31
ag31
ag31
ag31
ag31
ag31
ag31
ag31
ag31
ag31
ag31
ag31
ag31
ag31
ag31
ag31
ag31
ag31
ag31
ag31
ag31
ag31
ag31
ag31
ag31
ag31
ag31
ag31
ag31
ag31
ag31
ag31
ag31
ag31
ag31
ag31
ag31
ag31
ag31
ag31
a(I60
I2
tp32
ag32
ag32
ag32
ag32
ag32
ag32
ag32
ag32
ag32
ag32
ag32
ag32
ag32
ag32
ag32
ag32
ag32
ag32
ag32
ag32
ag32
ag32
ag32
ag32
ag32
ag32
ag32
ag32
ag32
ag32
ag32
ag32
ag32
ag32
ag32
a(I61
I3
tp33
a(I14
I2
tp34
ag34
ag34
ag34
ag34
ag34
ag34
ag34
ag34
ag34
ag34
ag34
ag34
ag34
ag34
ag34
ag34
ag34
ag34
ag34
ag34
ag34
ag34
ag34
ag34
ag34
ag34
ag34
ag34
ag34
ag34
ag34
ag34
ag34
ag34
ag34
ag34
ag34
ag34
ag34
ag34
ag34
ag34
ag34
ag34
ag34
ag34
ag34
ag34
ag34
ag34
ag34
ag34
ag34
ag34
ag34
ag34
ag34
ag34
ag34
ag34
ag34
ag34
ag34
ag34
ag34
ag34
ag34
ag34
ag34
a(I44
I3
tp35
a(I45
I2
tp36
ag36
ag36
ag36
ag36
ag36
ag36
ag36
a(I26
I1
tp37
ag37
ag37
ag37
ag37
ag37
ag37
ag37
ag37
ag37
ag37
ag37
ag37
ag37
ag37
ag37
ag37
ag37
ag37
ag37
ag37
ag37
ag37
ag37
ag37
ag37
ag37
ag37
ag37
ag37
ag37
ag37
ag37
ag37
ag37
ag37
ag37
ag37
ag37
ag37
ag37
ag37
ag37
ag37
ag37
ag37
ag37
ag37
ag37
ag37
ag37
ag37
ag37
ag37
ag37
ag37
ag37
ag37
ag37
ag37
ag37
ag37
ag37
ag37
ag37
ag37
ag37
ag37
ag37
ag37
ag37
ag37
ag37
ag37
ag37
ag37
ag37
ag37
ag37
ag37
ag37
ag37
ag37
ag37
ag37
ag37
ag37
ag37
ag37
ag37
ag37
ag37
ag37
ag37
ag37
ag37
ag37
ag37
ag37
ag37
ag37
ag37
ag37
ag37
ag37
ag37
ag37
ag37
ag37
ag37
ag37
ag37
ag37
ag37
ag37
ag37
ag37
ag37
ag37
ag37
ag37
ag37
ag37
ag37
ag37
ag37
ag37
ag37
ag37
ag37
ag37
ag37
ag37
ag37
a(I50
I2
tp38
ag38
ag38
ag38
ag38
ag38
ag38
ag38
ag38
ag38
ag38
ag38
ag38
ag38
ag38
ag38
ag38
ag38
ag38
ag38
ag38
ag38
ag38
ag38
ag38
a(I47
I3
tp39
a(I3
I1
tp40
ag40
ag40
ag40
ag40
ag40
ag40
ag40
ag40
ag40
ag40
ag40
ag40
ag40
ag40
ag40
ag40
ag40
ag40
ag40
ag40
ag40
ag40
ag40
ag40
ag40
ag40
ag40
ag40
ag40
ag40
ag40
ag40
ag40
ag40
ag40
ag40
ag40
ag40
ag40
ag40
ag40
ag40
ag40
ag40
ag40
ag40
ag40
a(I52
I1
tp41
ag41
ag41
ag41
ag41
ag41
ag41
ag41
ag41
ag41
ag41
ag41
ag41
ag41
ag41
ag41
ag41
ag41
ag41
ag41
ag41
ag41
ag41
ag41
ag41
ag41
ag41
ag41
ag41
ag41
ag41
ag41
ag41
ag41
ag41
ag41
ag41
ag41
ag41
ag41
ag41
ag41
ag41
ag41
ag41
ag41
ag41
ag41
ag41
ag41
ag41
ag41
ag41
ag41
ag41
ag41
ag41
ag41
ag41
ag41
ag41
ag41
ag41
ag41
ag41
ag41
ag41
ag41
ag41
ag41
ag41
ag41
ag41
ag41
ag41
ag41
ag41
ag41
ag41
ag41
ag41
a(I29
I1
tp42
ag42
ag42
ag42
ag42
ag42
ag42
ag42
ag42
ag42
ag42
ag42
ag42
ag42
ag42
ag42
ag42
ag42
ag42
ag42
ag42
ag42
ag42
ag42
ag42
ag42
ag42
ag42
ag42
ag42
ag42
ag42
ag42
ag42
ag42
ag42
ag42
ag42
ag42
ag42
ag42
ag42
ag42
ag42
ag42
ag42
ag42
ag42
ag42
ag42
ag42
ag42
ag42
ag42
ag42
ag42
ag42
ag42
ag42
ag42
ag42
ag42
ag42
ag42
ag42
ag42
ag42
ag42
ag42
ag42
ag42
ag42
ag42
ag42
ag42
ag42
ag42
ag42
ag42
ag42
ag42
ag42
ag42
ag42
ag42
ag42
ag42
ag42
ag42
ag42
ag42
ag42
ag42
a(I34
I3
tp43
a(I31
I2
tp44
ag44
ag44
ag44
ag44
ag44
ag44
ag44
ag44
ag44
ag44
ag44
ag44
ag44
ag44
ag44
ag44
ag44
ag44
ag44
ag44
ag44
ag44
ag44
ag44
ag44
ag44
ag44
ag44
ag44
ag44
ag44
ag44
ag44
ag44
ag44
ag44
ag44
ag44
ag44
ag44
a(I55
I1
tp45
ag45
ag45
ag45
ag45
ag45
ag45
ag45
ag45
ag45
ag45
ag45
ag45
ag45
ag45
ag45
ag45
ag45
ag45
ag45
ag45
ag45
ag45
ag45
ag45
ag45
ag45
ag45
ag45
ag45
ag45
ag45
ag45
ag45
ag45
ag45
a(I36
I2
tp46
ag46
ag46
ag46
ag46
ag46
ag46
ag46
ag46
ag46
ag46
ag46
ag46
ag46
ag46
ag46
ag46
ag46
ag46
ag46
ag46
ag46
ag46
ag46
ag46
ag46
ag46
ag46
ag46
ag46
ag46
ag46
ag46
ag46
ag46
ag46
ag46
ag46
ag46
ag46
ag46
ag46
ag46
ag46
ag46
ag46
ag46
ag46
ag46
ag46
ag46
ag46
ag46
ag46
ag46
ag46
ag46
ag46
ag46
ag46
ag46
ag46
ag46
ag46
ag46
ag46
ag46
ag46
ag46
ag46
ag46
a(I65
I1
tp47
ag47
ag47
ag47
a(I37
I3
tp48
a(I20
I3
tp49
a(I21
I2
tp50
ag50
ag50
ag50
ag50
ag50
ag50
ag50
ag50
ag50
ag50
ag50
ag50
ag50
ag50
ag50
ag50
ag50
ag50
ag50
ag50
ag50
ag50
ag50
ag50
ag50
ag50
ag50
a(I2
I1
tp51
ag51
ag51
ag51
ag51
ag51
ag51
ag51
ag51
ag51
ag51
ag51
ag51
ag51
ag51
ag51
ag51
ag51
ag51
ag51
ag51
ag51
ag51
ag51
ag51
ag51
ag51
ag51
ag51
ag51
ag51
ag51
ag51
ag51
ag51
ag51
ag51
ag51
ag51
ag51
ag51
ag51
ag51
ag51
ag51
ag51
ag51
ag51
ag51
ag51
ag51
ag51
ag51
ag51
ag51
ag51
ag51
ag51
ag51
ag51
a(I26
I2
tp52
ag52
ag52
ag52
ag52
ag52
ag52
ag52
ag52
ag52
ag52
ag52
ag52
ag52
ag52
ag52
ag52
ag52
ag52
ag52
ag52
ag52
ag52
ag52
ag52
ag52
ag52
ag52
ag52
ag52
ag52
ag52
ag52
ag52
ag52
ag52
ag52
ag52
ag52
ag52
ag52
ag52
ag52
ag52
ag52
ag52
ag52
ag52
ag52
ag52
ag52
ag52
ag52
ag52
ag52
ag52
ag52
ag52
ag52
ag52
ag52
ag52
ag52
ag52
ag52
ag52
ag52
ag52
ag52
ag52
ag52
ag52
ag52
ag52
ag52
ag52
ag52
ag52
ag52
ag52
ag52
ag52
ag52
ag52
ag52
ag52
ag52
ag52
ag52
ag52
ag52
ag52
ag52
ag52
ag52
ag52
ag52
ag52
ag52
ag52
ag52
ag52
ag52
ag52
ag52
ag52
ag52
ag52
ag52
ag52
ag52
ag52
ag52
ag52
ag52
ag52
ag52
ag52
ag52
ag52
ag52
ag52
ag52
ag52
ag52
ag52
ag52
ag52
ag52
ag52
ag52
ag52
ag52
ag52
ag52
ag52
ag52
ag52
ag52
ag52
ag52
ag52
ag52
ag52
ag52
ag52
ag52
a(I23
I3
tp53
a(I56
I3
tp54
a(I28
I1
tp55
ag55
ag55
ag55
ag55
ag55
ag55
ag55
ag55
ag55
ag55
ag55
ag55
ag55
ag55
ag55
ag55
ag55
ag55
ag55
ag55
ag55
ag55
ag55
ag55
ag55
ag55
ag55
ag55
ag55
ag55
ag55
ag55
ag55
ag55
ag55
ag55
ag55
ag55
ag55
ag55
ag55
ag55
ag55
ag55
ag55
ag55
ag55
ag55
ag55
ag55
ag55
ag55
ag55
ag55
ag55
ag55
ag55
ag55
ag55
ag55
ag55
ag55
ag55
ag55
ag55
ag55
ag55
ag55
ag55
ag55
ag55
ag55
ag55
ag55
ag55
ag55
ag55
ag55
ag55
ag55
a(I57
I2
tp56
ag56
ag56
ag56
ag56
ag56
ag56
ag56
ag56
ag56
ag56
ag56
ag56
ag56
ag56
ag56
ag56
ag56
ag56
ag56
ag56
ag56
ag56
ag56
ag56
ag56
ag56
ag56
ag56
ag56
ag56
ag56
ag56
ag56
ag56
ag56
ag56
ag56
ag56
ag56
ag56
ag56
ag56
ag56
ag56
a(I5
I1
tp57
ag57
ag57
ag57
ag57
ag57
ag57
ag57
ag57
ag57
ag57
ag57
ag57
ag57
ag57
ag57
ag57
a(I54
I1
tp58
ag58
ag58
ag58
ag58
ag58
ag58
ag58
ag58
ag58
ag58
ag58
ag58
ag58
ag58
ag58
ag58
ag58
ag58
ag58
ag58
ag58
ag58
ag58
ag58
ag58
ag58
ag58
ag58
ag58
ag58
ag58
ag58
ag58
ag58
ag58
ag58
ag58
ag58
ag58
ag58
ag58
ag58
ag58
ag58
ag58
ag58
ag58
ag58
ag58
ag58
a(I10
I3
tp59
a(I59
I3
tp60
a(I7
I2
tp61
ag61
ag61
ag61
ag61
ag61
ag61
ag61
ag61
ag61
ag61
ag61
ag61
ag61
ag61
ag61
ag61
ag61
ag61
ag61
ag61
ag61
ag61
ag61
ag61
ag61
ag61
ag61
ag61
ag61
ag61
ag61
ag61
ag61
ag61
ag61
a(I31
I1
tp62
ag62
ag62
ag62
ag62
ag62
ag62
ag62
ag62
ag62
ag62
ag62
ag62
ag62
ag62
ag62
ag62
ag62
ag62
ag62
ag62
ag62
ag62
ag62
ag62
ag62
ag62
ag62
ag62
ag62
ag62
ag62
ag62
ag62
ag62
ag62
ag62
ag62
ag62
ag62
ag62
ag62
a(I64
I1
tp63
ag63
ag63
ag63
ag63
ag63
ag63
ag63
ag63
ag63
ag63
ag63
ag63
ag63
ag63
ag63
ag63
ag63
ag63
ag63
ag63
ag63
ag63
ag63
ag63
ag63
ag63
ag63
ag63
ag63
ag63
ag63
ag63
ag63
ag63
ag63
ag63
ag63
ag63
ag63
ag63
ag63
ag63
ag63
ag63
ag63
ag63
ag63
ag63
ag63
ag63
ag63
ag63
ag63
ag63
ag63
ag63
ag63
ag63
ag63
a(I12
I2
tp64
ag64
ag64
ag64
ag64
ag64
ag64
ag64
ag64
ag64
ag64
ag64
ag64
ag64
ag64
ag64
ag64
ag64
ag64
ag64
ag64
ag64
ag64
ag64
ag64
ag64
ag64
ag64
ag64
ag64
ag64
ag64
ag64
ag64
ag64
ag64
ag64
ag64
ag64
ag64
ag64
ag64
ag64
ag64
ag64
ag64
ag64
ag64
ag64
ag64
ag64
ag64
ag64
ag64
ag64
ag64
ag64
ag64
ag64
ag64
ag64
ag64
ag64
ag64
ag64
ag64
a(I41
I1
tp65
ag65
ag65
ag65
ag65
ag65
ag65
ag65
ag65
ag65
ag65
ag65
ag65
ag65
ag65
ag65
ag65
ag65
ag65
ag65
ag65
ag65
ag65
ag65
ag65
ag65
ag65
ag65
ag65
ag65
ag65
ag65
ag65
ag65
ag65
ag65
ag65
ag65
ag65
ag65
ag65
ag65
ag65
ag65
ag65
ag65
ag65
ag65
ag65
ag65
ag65
ag65
ag65
ag65
ag65
ag65
ag65
ag65
ag65
ag65
ag65
ag65
ag65
ag65
ag65
ag65
ag65
a(I13
I3
tp66
a(I62
I3
tp67
a(I43
I2
tp68
ag68
ag68
ag68
ag68
ag68
ag68
ag68
ag68
ag68
ag68
ag68
ag68
ag68
ag68
ag68
ag68
ag68
ag68
ag68
ag68
ag68
ag68
ag68
ag68
ag68
ag68
ag68
ag68
ag68
ag68
ag68
ag68
ag68
ag68
ag68
ag68
a(I48
I2
tp69
ag69
ag69
ag69
ag69
ag69
ag69
ag69
ag69
ag69
ag69
ag69
ag69
ag69
ag69
ag69
ag69
ag69
ag69
ag69
ag69
ag69
ag69
ag69
ag69
ag69
ag69
ag69
ag69
a(I49
I3
tp70
a(I2
I2
tp71
ag71
ag71
ag71
ag71
ag71
ag71
ag71
ag71
ag71
ag71
ag71
ag71
ag71
ag71
ag71
ag71
ag71
ag71
ag71
ag71
ag71
ag71
ag71
ag71
ag71
ag71
ag71
ag71
ag71
ag71
ag71
ag71
ag71
ag71
ag71
ag71
ag71
ag71
ag71
ag71
ag71
ag71
ag71
ag71
ag71
ag71
ag71
ag71
ag71
ag71
ag71
ag71
ag71
ag71
ag71
ag71
ag71
ag71
ag71
ag71
ag71
ag71
ag71
ag71
ag71
ag71
a(I32
I3
tp72
a(I4
I1
tp73
ag73
ag73
ag73
ag73
ag73
ag73
ag73
ag73
ag73
ag73
ag73
ag73
ag73
ag73
ag73
ag73
a(I33
I2
tp74
ag74
ag74
ag74
ag74
ag74
ag74
ag74
ag74
ag74
ag74
ag74
ag74
a(I30
I1
tp75
ag75
ag75
ag75
ag75
ag75
ag75
ag75
ag75
ag75
ag75
ag75
ag75
ag75
ag75
ag75
ag75
ag75
ag75
ag75
ag75
ag75
ag75
ag75
ag75
ag75
ag75
ag75
ag75
ag75
ag75
ag75
ag75
ag75
ag75
ag75
ag75
ag75
ag75
ag75
ag75
ag75
ag75
ag75
ag75
ag75
ag75
ag75
ag75
ag75
ag75
ag75
ag75
ag75
ag75
ag75
ag75
ag75
ag75
ag75
ag75
ag75
ag75
ag75
ag75
ag75
ag75
ag75
ag75
ag75
ag75
ag75
ag75
ag75
ag75
ag75
ag75
a(I54
I2
tp76
ag76
ag76
ag76
ag76
ag76
ag76
ag76
ag76
ag76
ag76
ag76
ag76
ag76
ag76
ag76
ag76
ag76
ag76
ag76
ag76
ag76
ag76
ag76
ag76
ag76
ag76
ag76
ag76
ag76
ag76
ag76
ag76
ag76
ag76
ag76
ag76
ag76
ag76
ag76
ag76
ag76
ag76
ag76
ag76
ag76
ag76
ag76
ag76
ag76
a(I35
I3
tp77
a(I7
I1
tp78
ag78
ag78
ag78
ag78
ag78
ag78
ag78
ag78
ag78
ag78
ag78
ag78
ag78
ag78
ag78
ag78
ag78
ag78
ag78
ag78
ag78
ag78
ag78
ag78
ag78
ag78
ag78
ag78
ag78
ag78
ag78
ag78
ag78
ag78
ag78
a(I40
I1
tp79
ag79
ag79
ag79
ag79
ag79
ag79
ag79
ag79
ag79
ag79
ag79
ag79
ag79
ag79
ag79
ag79
ag79
ag79
ag79
ag79
ag79
ag79
a(I17
I1
tp80
ag80
ag80
ag80
ag80
ag80
ag80
ag80
ag80
ag80
ag80
ag80
ag80
ag80
ag80
ag80
ag80
ag80
ag80
ag80
ag80
ag80
ag80
ag80
ag80
ag80
ag80
ag80
ag80
ag80
ag80
ag80
ag80
ag80
ag80
ag80
ag80
ag80
ag80
ag80
ag80
ag80
ag80
ag80
ag80
ag80
ag80
ag80
ag80
ag80
ag80
ag80
ag80
ag80
ag80
ag80
ag80
ag80
ag80
ag80
ag80
ag80
ag80
a(I38
I3
tp81
a(I19
I2
tp82
ag82
ag82
ag82
ag82
ag82
ag82
ag82
ag82
ag82
ag82
ag82
ag82
ag82
ag82
ag82
ag82
ag82
ag82
ag82
ag82
ag82
ag82
ag82
ag82
ag82
ag82
ag82
ag82
ag82
ag82
ag82
ag82
ag82
ag82
ag82
ag82
ag82
ag82
ag82
ag82
ag82
ag82
ag82
ag82
ag82
ag82
ag82
ag82
ag82
ag82
ag82
ag82
ag82
ag82
ag82
ag82
ag82
ag82
ag82
ag82
ag82
ag82
ag82
ag82
ag82
ag82
ag82
ag82
ag82
ag82
ag82
ag82
ag82
ag82
ag82
ag82
ag82
ag82
ag82
ag82
ag82
ag82
ag82
ag82
ag82
ag82
ag82
ag82
ag82
ag82
ag82
ag82
ag82
ag82
ag82
ag82
ag82
ag82
ag82
ag82
ag82
ag82
ag82
ag82
ag82
ag82
ag82
ag82
ag82
ag82
ag82
ag82
ag82
ag82
ag82
a(I43
I1
tp83
ag83
ag83
ag83
ag83
ag83
ag83
ag83
ag83
ag83
ag83
ag83
ag83
ag83
ag83
ag83
ag83
ag83
ag83
ag83
ag83
a(I24
I2
tp84
ag84
ag84
ag84
ag84
ag84
ag84
ag84
ag84
ag84
ag84
ag84
ag84
ag84
ag84
ag84
ag84
ag84
ag84
ag84
a(I25
I3
tp85
a(I8
I3
tp86
a(I9
I2
tp87
ag87
ag87
ag87
ag87
ag87
ag87
ag87
ag87
ag87
ag87
ag87
ag87
a(I6
I1
tp88
ag88
ag88
ag88
ag88
ag88
ag88
ag88
ag88
ag88
ag88
ag88
ag88
ag88
ag88
ag88
ag88
ag88
ag88
ag88
ag88
ag88
ag88
ag88
ag88
ag88
ag88
ag88
ag88
ag88
ag88
ag88
ag88
ag88
ag88
ag88
ag88
ag88
ag88
ag88
ag88
ag88
ag88
ag88
ag88
ag88
ag88
ag88
ag88
ag88
ag88
ag88
ag88
ag88
ag88
ag88
ag88
ag88
ag88
ag88
ag88
a(I30
I2
tp89
ag89
ag89
ag89
ag89
ag89
ag89
ag89
ag89
ag89
ag89
ag89
ag89
ag89
ag89
ag89
ag89
ag89
ag89
ag89
ag89
ag89
ag89
ag89
ag89
ag89
ag89
ag89
ag89
ag89
ag89
ag89
ag89
ag89
ag89
ag89
ag89
ag89
ag89
ag89
ag89
ag89
ag89
ag89
ag89
ag89
ag89
ag89
ag89
ag89
ag89
ag89
ag89
ag89
ag89
ag89
ag89
ag89
ag89
ag89
ag89
ag89
ag89
ag89
ag89
ag89
ag89
ag89
ag89
ag89
ag89
ag89
ag89
ag89
ag89
a(I11
I3
tp90
a(I60
I3
tp91
a(I16
I1
tp92
ag92
ag92
ag92
ag92
ag92
ag92
ag92
ag92
ag92
ag92
ag92
ag92
ag92
ag92
ag92
ag92
ag92
ag92
ag92
ag92
ag92
ag92
a(I61
I2
tp93
ag93
ag93
ag93
ag93
ag93
ag93
ag93
ag93
ag93
ag93
a(I42
I1
tp94
ag94
ag94
ag94
ag94
ag94
ag94
ag94
ag94
ag94
ag94
ag94
ag94
ag94
ag94
ag94
ag94
ag94
ag94
ag94
ag94
ag94
ag94
ag94
ag94
ag94
ag94
ag94
ag94
ag94
ag94
ag94
ag94
ag94
ag94
ag94
ag94
ag94
ag94
ag94
ag94
ag94
ag94
ag94
ag94
ag94
ag94
ag94
ag94
ag94
ag94
ag94
ag94
ag94
ag94
ag94
ag94
ag94
a(I14
I3
tp95
a(I63
I3
tp96
a(I19
I1
tp97
ag97
ag97
ag97
ag97
ag97
ag97
ag97
ag97
ag97
ag97
ag97
ag97
ag97
ag97
ag97
ag97
ag97
ag97
ag97
ag97
ag97
ag97
ag97
ag97
ag97
ag97
ag97
ag97
ag97
ag97
ag97
ag97
ag97
ag97
ag97
ag97
ag97
ag97
ag97
ag97
ag97
ag97
ag97
ag97
ag97
ag97
ag97
ag97
ag97
ag97
ag97
ag97
ag97
ag97
ag97
ag97
ag97
ag97
ag97
ag97
ag97
ag97
ag97
ag97
ag97
ag97
ag97
ag97
ag97
ag97
ag97
ag97
ag97
ag97
ag97
ag97
ag97
ag97
ag97
ag97
ag97
ag97
ag97
ag97
ag97
ag97
ag97
ag97
ag97
ag97
ag97
ag97
ag97
ag97
ag97
ag97
ag97
ag97
ag97
ag97
ag97
ag97
ag97
ag97
ag97
ag97
ag97
ag97
ag97
ag97
ag97
ag97
ag97
a(I45
I1
tp98
ag98
ag98
ag98
ag98
a(I1
I3
tp99
a(I50
I3
tp100
a(I47
I2
tp101
ag101
ag101
ag101
ag101
ag101
ag101
ag101
ag101
ag101
ag101
ag101
ag101
ag101
a(I52
I2
tp102
ag102
ag102
ag102
ag102
ag102
ag102
ag102
ag102
ag102
ag102
ag102
ag102
ag102
ag102
ag102
ag102
ag102
ag102
ag102
ag102
ag102
ag102
ag102
ag102
ag102
ag102
ag102
ag102
ag102
ag102
ag102
ag102
ag102
ag102
ag102
ag102
ag102
ag102
ag102
ag102
ag102
ag102
ag102
ag102
ag102
ag102
ag102
ag102
ag102
ag102
ag102
ag102
ag102
ag102
ag102
ag102
ag102
ag102
ag102
ag102
ag102
ag102
ag102
ag102
ag102
ag102
ag102
ag102
ag102
ag102
ag102
ag102
ag102
ag102
ag102
ag102
ag102
ag102
ag102
ag102
ag102
ag102
ag102
ag102
ag102
ag102
ag102
ag102
a(I53
I3
tp103
a(I6
I2
tp104
ag104
ag104
ag104
ag104
ag104
ag104
ag104
ag104
ag104
ag104
ag104
ag104
ag104
ag104
ag104
ag104
ag104
ag104
ag104
ag104
ag104
ag104
ag104
ag104
ag104
ag104
ag104
ag104
ag104
ag104
ag104
ag104
ag104
ag104
ag104
ag104
ag104
ag104
ag104
ag104
ag104
ag104
ag104
ag104
ag104
ag104
ag104
ag104
ag104
ag104
ag104
ag104
ag104
ag104
ag104
ag104
ag104
ag104
ag104
ag104
ag104
ag104
a(I36
I3
tp105
ag105
a(I37
I2
tp106
ag106
ag106
ag106
ag106
ag106
ag106
ag106
ag106
ag106
ag106
ag106
ag106
ag106
ag106
ag106
ag106
ag106
ag106
ag106
ag106
ag106
ag106
ag106
ag106
ag106
ag106
ag106
ag106
ag106
ag106
ag106
ag106
ag106
ag106
ag106
ag106
ag106
ag106
ag106
ag106
ag106
ag106
ag106
ag106
a(I18
I1
tp107
ag107
ag107
ag107
ag107
ag107
ag107
ag107
ag107
ag107
ag107
ag107
ag107
ag107
ag107
ag107
ag107
ag107
ag107
ag107
ag107
ag107
ag107
ag107
ag107
ag107
ag107
ag107
ag107
ag107
ag107
ag107
ag107
ag107
ag107
ag107
ag107
ag107
ag107
ag107
ag107
ag107
ag107
ag107
ag107
ag107
ag107
ag107
ag107
ag107
ag107
ag107
ag107
ag107
ag107
ag107
ag107
ag107
ag107
ag107
ag107
ag107
ag107
ag107
ag107
ag107
ag107
ag107
ag107
ag107
ag107
ag107
ag107
ag107
ag107
ag107
ag107
ag107
ag107
ag107
ag107
ag107
ag107
ag107
ag107
ag107
a(I42
I2
tp108
ag108
ag108
ag108
ag108
ag108
ag108
ag108
ag108
ag108
ag108
ag108
ag108
ag108
ag108
ag108
ag108
ag108
ag108
ag108
ag108
ag108
ag108
ag108
ag108
ag108
ag108
ag108
ag108
ag108
ag108
ag108
ag108
ag108
ag108
ag108
ag108
ag108
ag108
ag108
ag108
ag108
ag108
ag108
ag108
ag108
ag108
ag108
ag108
ag108
ag108
ag108
ag108
ag108
ag108
ag108
ag108
ag108
ag108
ag108
ag108
ag108
ag108
ag108
ag108
ag108
ag108
ag108
ag108
ag108
ag108
ag108
ag108
ag108
a(I39
I3
tp109
ag109
ag109
a(I44
I1
tp110
ag110
ag110
ag110
ag110
ag110
ag110
ag110
ag110
ag110
ag110
ag110
ag110
ag110
ag110
ag110
ag110
ag110
ag110
ag110
ag110
ag110
ag110
ag110
ag110
a(I21
I1
tp111
ag111
ag111
ag111
ag111
ag111
ag111
ag111
ag111
ag111
ag111
ag111
ag111
ag111
ag111
ag111
ag111
ag111
ag111
ag111
ag111
ag111
ag111
ag111
a(I26
I3
tp112
a(I23
I2
tp113
ag113
ag113
ag113
ag113
ag113
ag113
ag113
ag113
ag113
ag113
ag113
ag113
ag113
ag113
ag113
ag113
ag113
ag113
ag113
ag113
ag113
ag113
ag113
ag113
ag113
ag113
ag113
ag113
ag113
ag113
a(I47
I1
tp114
ag114
ag114
ag114
ag114
ag114
ag114
ag114
ag114
ag114
ag114
ag114
ag114
ag114
ag114
ag114
ag114
ag114
ag114
ag114
ag114
ag114
ag114
ag114
ag114
ag114
ag114
a(I28
I2
tp115
ag115
ag115
ag115
ag115
ag115
ag115
ag115
ag115
ag115
ag115
ag115
ag115
ag115
ag115
ag115
ag115
ag115
ag115
ag115
ag115
ag115
ag115
ag115
ag115
ag115
ag115
ag115
ag115
ag115
ag115
ag115
ag115
ag115
ag115
ag115
ag115
ag115
ag115
ag115
ag115
ag115
ag115
ag115
ag115
ag115
ag115
ag115
ag115
ag115
ag115
ag115
ag115
ag115
ag115
ag115
ag115
ag115
ag115
ag115
ag115
ag115
ag115
ag115
ag115
ag115
ag115
ag115
ag115
ag115
ag115
ag115
ag115
ag115
ag115
ag115
ag115
ag115
ag115
ag115
ag115
a(I57
I1
tp116
ag116
ag116
ag116
ag116
ag116
ag116
ag116
ag116
ag116
ag116
ag116
ag116
ag116
ag116
ag116
ag116
ag116
ag116
ag116
ag116
ag116
a(I29
I3
tp117
a(I59
I2
tp118
ag118
ag118
ag118
ag118
ag118
ag118
ag118
ag118
ag118
ag118
ag118
ag118
ag118
ag118
ag118
ag118
ag118
ag118
ag118
ag118
ag118
ag118
ag118
ag118
ag118
ag118
ag118
ag118
ag118
ag118
ag118
ag118
ag118
ag118
ag118
ag118
ag118
ag118
ag118
ag118
ag118
ag118
ag118
ag118
ag118
ag118
ag118
ag118
ag118
ag118
ag118
ag118
ag118
ag118
ag118
ag118
ag118
ag118
ag118
ag118
ag118
ag118
ag118
ag118
ag118
ag118
ag118
a(I64
I2
tp119
ag119
ag119
ag119
ag119
ag119
ag119
ag119
ag119
ag119
ag119
ag119
ag119
ag119
ag119
ag119
ag119
ag119
ag119
ag119
ag119
ag119
ag119
ag119
ag119
ag119
ag119
ag119
ag119
ag119
ag119
ag119
ag119
ag119
ag119
ag119
ag119
ag119
ag119
ag119
ag119
ag119
ag119
ag119
ag119
ag119
ag119
ag119
ag119
ag119
ag119
ag119
ag119
ag119
ag119
ag119
ag119
ag119
ag119
ag119
ag119
ag119
ag119
ag119
ag119
ag119
ag119
ag119
ag119
a(I12
I3
tp120
a(I65
I3
tp121
a(I13
I2
tp122
ag122
ag122
ag122
ag122
ag122
ag122
ag122
ag122
a(I18
I2
tp123
ag123
ag123
ag123
ag123
ag123
ag123
ag123
ag123
ag123
ag123
ag123
ag123
ag123
ag123
ag123
ag123
ag123
ag123
ag123
ag123
ag123
ag123
ag123
ag123
ag123
ag123
ag123
ag123
ag123
ag123
ag123
ag123
ag123
ag123
ag123
ag123
ag123
ag123
ag123
ag123
ag123
ag123
ag123
ag123
ag123
ag123
ag123
ag123
ag123
ag123
ag123
ag123
ag123
ag123
ag123
ag123
ag123
ag123
ag123
ag123
ag123
ag123
ag123
ag123
ag123
ag123
ag123
ag123
ag123
ag123
ag123
ag123
ag123
ag123
ag123
ag123
ag123
ag123
ag123
ag123
a(I15
I3
tp124
a(I48
I3
tp125
a(I20
I1
tp126
ag126
ag126
ag126
ag126
ag126
ag126
ag126
ag126
ag126
ag126
ag126
ag126
ag126
ag126
ag126
ag126
ag126
ag126
ag126
ag126
ag126
ag126
ag126
ag126
ag126
ag126
ag126
ag126
ag126
ag126
ag126
ag126
ag126
ag126
ag126
ag126
ag126
ag126
ag126
ag126
ag126
ag126
ag126
ag126
ag126
ag126
ag126
ag126
ag126
ag126
ag126
ag126
ag126
ag126
ag126
ag126
ag126
ag126
ag126
ag126
ag126
ag126
ag126
ag126
ag126
ag126
ag126
ag126
ag126
ag126
ag126
ag126
ag126
ag126
ag126
ag126
ag126
ag126
ag126
ag126
ag126
ag126
ag126
ag126
ag126
ag126
ag126
ag126
ag126
ag126
ag126
ag126
ag126
ag126
ag126
ag126
ag126
ag126
ag126
ag126
a(I49
I2
tp127
ag127
ag127
ag127
ag127
ag127
ag127
ag127
ag127
ag127
ag127
ag127
ag127
ag127
ag127
ag127
ag127
ag127
ag127
ag127
ag127
ag127
ag127
ag127
ag127
ag127
ag127
ag127
ag127
ag127
ag127
ag127
ag127
a(I46
I1
tp128
ag128
ag128
ag128
ag128
ag128
ag128
ag128
ag128
ag128
ag128
ag128
ag128
ag128
ag128
ag128
ag128
ag128
ag128
ag128
ag128
ag128
ag128
ag128
ag128
ag128
ag128
ag128
ag128
a(I2
I3
tp129
a(I51
I3
tp130
a(I23
I1
tp131
ag131
ag131
ag131
ag131
ag131
ag131
ag131
ag131
ag131
ag131
ag131
ag131
ag131
ag131
ag131
ag131
ag131
ag131
ag131
ag131
ag131
ag131
ag131
ag131
ag131
ag131
ag131
ag131
ag131
ag131
ag131
ag131
ag131
ag131
ag131
ag131
ag131
a(I56
I1
tp132
ag132
ag132
ag132
ag132
ag132
ag132
ag132
ag132
ag132
ag132
ag132
ag132
ag132
ag132
ag132
ag132
ag132
ag132
ag132
ag132
ag132
ag132
ag132
ag132
ag132
ag132
ag132
ag132
ag132
ag132
ag132
ag132
ag132
ag132
ag132
ag132
ag132
ag132
ag132
ag132
ag132
ag132
ag132
ag132
ag132
ag132
ag132
ag132
ag132
ag132
ag132
a(I4
I2
tp133
ag133
ag133
ag133
ag133
ag133
ag133
ag133
ag133
ag133
ag133
ag133
ag133
ag133
ag133
ag133
ag133
a(I33
I1
tp134
ag134
ag134
ag134
ag134
ag134
ag134
ag134
ag134
ag134
a(I5
I3
tp135
ag135
a(I54
I3
tp136
a(I35
I2
tp137
ag137
ag137
ag137
ag137
ag137
ag137
ag137
ag137
ag137
ag137
ag137
ag137
ag137
ag137
ag137
ag137
ag137
ag137
ag137
ag137
ag137
ag137
ag137
ag137
ag137
ag137
ag137
ag137
ag137
ag137
ag137
ag137
ag137
ag137
ag137
ag137
ag137
ag137
ag137
ag137
a(I59
I1
tp138
ag138
ag138
ag138
ag138
ag138
ag138
ag138
ag138
ag138
ag138
ag138
ag138
ag138
ag138
ag138
ag138
ag138
ag138
ag138
ag138
ag138
ag138
ag138
ag138
ag138
ag138
ag138
ag138
ag138
ag138
ag138
ag138
ag138
ag138
ag138
ag138
ag138
ag138
ag138
ag138
ag138
ag138
ag138
ag138
ag138
ag138
ag138
ag138
ag138
a(I40
I2
tp139
ag139
ag139
ag139
ag139
ag139
ag139
ag139
ag139
ag139
ag139
ag139
ag139
ag139
ag139
ag139
ag139
ag139
ag139
ag139
ag139
ag139
ag139
ag139
ag139
ag139
ag139
ag139
ag139
ag139
ag139
ag139
a(I41
I3
tp140
a(I24
I3
tp141
a(I25
I2
tp142
ag142
ag142
ag142
ag142
ag142
ag142
ag142
ag142
ag142
ag142
ag142
a(I22
I1
tp143
ag143
ag143
ag143
ag143
ag143
ag143
ag143
ag143
ag143
ag143
ag143
ag143
ag143
ag143
ag143
ag143
ag143
ag143
ag143
ag143
ag143
ag143
ag143
ag143
ag143
ag143
a(I46
I2
tp144
ag144
ag144
ag144
ag144
ag144
ag144
ag144
ag144
ag144
ag144
ag144
ag144
ag144
ag144
ag144
ag144
ag144
ag144
ag144
ag144
ag144
ag144
ag144
ag144
ag144
ag144
ag144
ag144
a(I27
I3
tp145
a(I32
I1
tp146
ag146
ag146
ag146
ag146
a(I9
I1
tp147
ag147
ag147
ag147
ag147
ag147
ag147
ag147
ag147
ag147
ag147
ag147
ag147
a(I58
I1
tp148
ag148
ag148
ag148
ag148
ag148
ag148
ag148
ag148
ag148
ag148
ag148
ag148
ag148
ag148
ag148
ag148
ag148
ag148
ag148
ag148
ag148
ag148
ag148
ag148
ag148
ag148
ag148
ag148
ag148
ag148
ag148
ag148
ag148
ag148
ag148
ag148
ag148
ag148
ag148
ag148
ag148
ag148
ag148
ag148
ag148
ag148
ag148
ag148
ag148
ag148
ag148
ag148
ag148
ag148
ag148
ag148
ag148
ag148
ag148
ag148
ag148
ag148
ag148
ag148
ag148
ag148
ag148
ag148
ag148
ag148
ag148
ag148
ag148
ag148
ag148
ag148
ag148
ag148
ag148
ag148
ag148
a(I30
I3
tp149
a(I11
I2
tp150
ag150
ag150
ag150
ag150
ag150
ag150
ag150
ag150
ag150
ag150
ag150
ag150
ag150
ag150
ag150
ag150
ag150
ag150
ag150
ag150
ag150
ag150
ag150
ag150
ag150
ag150
ag150
ag150
ag150
ag150
ag150
ag150
ag150
ag150
ag150
ag150
ag150
ag150
ag150
ag150
ag150
ag150
ag150
ag150
ag150
ag150
ag150
ag150
ag150
ag150
ag150
ag150
ag150
ag150
a(I35
I1
tp151
ag151
ag151
ag151
ag151
ag151
ag151
ag151
ag151
ag151
ag151
ag151
ag151
ag151
ag151
ag151
ag151
ag151
ag151
ag151
ag151
ag151
ag151
ag151
a(I16
I2
tp152
ag152
ag152
ag152
ag152
ag152
ag152
ag152
ag152
ag152
ag152
ag152
ag152
ag152
ag152
ag152
ag152
a(I61
I1
tp153
ag153
ag153
ag153
ag153
ag153
ag153
ag153
ag153
a(I17
I3
tp154
a(I63
I2
tp155
ag155
ag155
ag155
ag155
ag155
ag155
ag155
ag155
ag155
ag155
ag155
ag155
ag155
ag155
ag155
ag155
ag155
ag155
ag155
ag155
ag155
ag155
ag155
ag155
ag155
ag155
ag155
ag155
ag155
ag155
ag155
ag155
ag155
ag155
ag155
ag155
ag155
ag155
ag155
ag155
ag155
ag155
ag155
ag155
ag155
ag155
ag155
ag155
ag155
ag155
ag155
ag155
ag155
ag155
ag155
ag155
a(I1
I2
tp156
ag156
ag156
ag156
ag156
ag156
ag156
ag156
ag156
ag156
ag156
ag156
ag156
ag156
ag156
ag156
ag156
ag156
ag156
ag156
ag156
ag156
ag156
ag156
ag156
ag156
ag156
ag156
ag156
ag156
ag156
ag156
ag156
ag156
ag156
ag156
ag156
ag156
ag156
ag156
ag156
ag156
ag156
ag156
ag156
ag156
ag156
ag156
ag156
ag156
ag156
ag156
a(I22
I2
tp157
ag157
ag157
ag157
ag157
ag157
ag157
ag157
ag157
ag157
ag157
ag157
ag157
ag157
ag157
ag157
ag157
ag157
ag157
ag157
ag157
ag157
ag157
ag157
ag157
ag157
ag157
ag157
ag157
a(I3
I3
tp158
ag158
a(I52
I3
tp159
a(I8
I1
tp160
ag160
ag160
ag160
ag160
ag160
ag160
ag160
ag160
ag160
ag160
ag160
ag160
ag160
ag160
ag160
ag160
ag160
ag160
ag160
ag160
ag160
ag160
ag160
ag160
ag160
ag160
ag160
ag160
ag160
ag160
ag160
ag160
ag160
ag160
ag160
ag160
ag160
ag160
ag160
ag160
ag160
ag160
ag160
ag160
ag160
ag160
ag160
ag160
ag160
ag160
ag160
ag160
ag160
ag160
a(I53
I2
tp161
ag161
ag161
ag161
ag161
ag161
ag161
ag161
ag161
ag161
ag161
ag161
ag161
ag161
ag161
ag161
ag161
ag161
ag161
a(I34
I1
tp162
ag162
ag162
ag162
ag162
ag162
ag162
ag162
ag162
ag162
ag162
ag162
ag162
ag162
ag162
ag162
ag162
ag162
ag162
ag162
ag162
ag162
ag162
ag162
ag162
ag162
ag162
ag162
ag162
ag162
ag162
ag162
ag162
ag162
ag162
ag162
ag162
ag162
ag162
ag162
ag162
ag162
ag162
ag162
ag162
ag162
ag162
ag162
ag162
ag162
ag162
ag162
ag162
ag162
ag162
a(I58
I2
tp163
ag163
ag163
ag163
ag163
ag163
ag163
ag163
ag163
ag163
ag163
ag163
ag163
ag163
ag163
ag163
ag163
ag163
ag163
ag163
ag163
ag163
ag163
ag163
ag163
ag163
ag163
ag163
ag163
ag163
ag163
ag163
ag163
ag163
ag163
ag163
ag163
ag163
ag163
ag163
ag163
ag163
ag163
ag163
ag163
ag163
ag163
ag163
ag163
ag163
ag163
ag163
ag163
ag163
ag163
ag163
ag163
ag163
ag163
ag163
ag163
ag163
ag163
ag163
ag163
ag163
ag163
ag163
ag163
ag163
ag163
ag163
ag163
a(I6
I3
tp164
a(I55
I3
tp165
a(I11
I1
tp166
ag166
ag166
ag166
ag166
ag166
ag166
ag166
ag166
ag166
ag166
ag166
ag166
ag166
ag166
ag166
ag166
ag166
ag166
ag166
ag166
ag166
ag166
ag166
ag166
ag166
ag166
ag166
ag166
ag166
ag166
ag166
ag166
ag166
ag166
ag166
ag166
ag166
ag166
ag166
ag166
ag166
ag166
ag166
ag166
ag166
ag166
ag166
ag166
ag166
ag166
ag166
ag166
ag166
ag166
ag166
ag166
ag166
a(I60
I1
tp167
ag167
ag167
ag167
ag167
ag167
ag167
ag167
ag167
ag167
ag167
ag167
ag167
ag167
ag167
ag167
ag167
ag167
ag167
ag167
ag167
ag167
ag167
ag167
ag167
ag167
ag167
ag167
ag167
ag167
ag167
ag167
ag167
ag167
ag167
ag167
ag167
ag167
ag167
ag167
ag167
ag167
ag167
ag167
ag167
ag167
ag167
ag167
ag167
a(I37
I1
tp168
ag168
ag168
ag168
ag168
ag168
ag168
ag168
ag168
ag168
ag168
ag168
ag168
ag168
ag168
ag168
ag168
ag168
ag168
ag168
ag168
ag168
ag168
ag168
ag168
ag168
ag168
ag168
ag168
a(I42
I3
tp169
a(I39
I2
tp170
ag170
ag170
ag170
ag170
ag170
ag170
ag170
ag170
ag170
ag170
ag170
ag170
ag170
ag170
ag170
ag170
ag170
ag170
ag170
ag170
ag170
ag170
ag170
ag170
ag170
ag170
ag170
ag170
ag170
ag170
ag170
ag170
ag170
ag170
ag170
ag170
ag170
ag170
ag170
ag170
ag170
ag170
ag170
ag170
ag170
ag170
ag170
ag170
ag170
ag170
ag170
ag170
ag170
ag170
ag170
ag170
ag170
ag170
ag170
ag170
ag170
ag170
ag170
ag170
ag170
ag170
ag170
ag170
ag170
ag170
ag170
ag170
ag170
ag170
ag170
ag170
ag170
ag170
ag170
ag170
ag170
ag170
ag170
ag170
ag170
ag170
ag170
ag170
ag170
ag170
ag170
ag170
ag170
ag170
ag170
ag170
ag170
ag170
ag170
ag170
ag170
ag170
ag170
ag170
ag170
ag170
ag170
ag170
ag170
ag170
ag170
ag170
ag170
ag170
ag170
ag170
ag170
ag170
ag170
ag170
ag170
ag170
ag170
ag170
ag170
ag170
ag170
ag170
ag170
ag170
ag170
ag170
ag170
ag170
ag170
a(I63
I1
tp171
ag171
ag171
ag171
ag171
ag171
ag171
ag171
ag171
ag171
ag171
ag171
ag171
ag171
ag171
ag171
ag171
ag171
ag171
ag171
ag171
ag171
ag171
ag171
ag171
ag171
ag171
ag171
ag171
ag171
ag171
ag171
ag171
ag171
ag171
ag171
ag171
ag171
a(I44
I2
tp172
ag172
ag172
ag172
ag172
ag172
ag172
ag172
ag172
ag172
ag172
ag172
ag172
ag172
ag172
ag172
ag172
ag172
ag172
ag172
ag172
ag172
ag172
ag172
ag172
ag172
ag172
ag172
ag172
ag172
ag172
ag172
ag172
ag172
ag172
ag172
ag172
ag172
ag172
a(I45
I3
tp173
a(I28
I3
tp174
a(I29
I2
tp175
ag175
ag175
ag175
ag175
ag175
ag175
ag175
ag175
ag175
ag175
ag175
ag175
ag175
ag175
ag175
ag175
ag175
ag175
ag175
ag175
ag175
ag175
ag175
ag175
ag175
ag175
ag175
ag175
ag175
ag175
ag175
ag175
ag175
ag175
ag175
ag175
ag175
ag175
ag175
ag175
ag175
ag175
ag175
ag175
ag175
ag175
ag175
ag175
ag175
ag175
ag175
ag175
ag175
ag175
ag175
ag175
ag175
ag175
ag175
ag175
ag175
ag175
ag175
ag175
ag175
ag175
ag175
ag175
ag175
ag175
ag175
ag175
ag175
ag175
ag175
ag175
ag175
ag175
ag175
ag175
ag175
ag175
ag175
ag175
ag175
ag175
ag175
ag175
ag175
ag175
ag175
ag175
ag175
ag175
ag175
a(I10
I1
tp176
ag176
ag176
ag176
ag176
ag176
ag176
ag176
ag176
ag176
ag176
ag176
ag176
ag176
ag176
ag176
ag176
ag176
ag176
ag176
ag176
ag176
ag176
ag176
ag176
a(I34
I2
tp177
ag177
ag177
ag177
ag177
ag177
ag177
ag177
ag177
ag177
ag177
ag177
ag177
ag177
ag177
ag177
ag177
ag177
ag177
ag177
ag177
ag177
ag177
ag177
ag177
ag177
ag177
ag177
ag177
ag177
ag177
ag177
ag177
ag177
ag177
ag177
ag177
ag177
ag177
ag177
ag177
ag177
ag177
ag177
ag177
ag177
ag177
ag177
a(I31
I3
tp178
a(I64
I3
tp179
a(I36
I1
tp180
ag180
ag180
ag180
ag180
ag180
ag180
ag180
ag180
ag180
ag180
ag180
ag180
ag180
ag180
ag180
ag180
ag180
ag180
ag180
ag180
ag180
ag180
ag180
ag180
ag180
ag180
ag180
ag180
ag180
ag180
ag180
ag180
ag180
ag180
ag180
ag180
ag180
ag180
ag180
ag180
ag180
ag180
ag180
ag180
ag180
ag180
ag180
ag180
ag180
ag180
ag180
ag180
ag180
ag180
ag180
ag180
ag180
ag180
ag180
ag180
ag180
ag180
ag180
ag180
ag180
ag180
ag180
ag180
ag180
ag180
a(I65
I2
tp181
ag181
ag181
ag181
a(I13
I1
tp182
ag182
ag182
ag182
ag182
ag182
ag182
a(I62
I1
tp183
ag183
ag183
ag183
ag183
ag183
ag183
ag183
ag183
ag183
ag183
ag183
ag183
ag183
ag183
ag183
ag183
ag183
ag183
ag183
ag183
ag183
ag183
ag183
ag183
ag183
ag183
ag183
ag183
ag183
ag183
ag183
ag183
ag183
ag183
ag183
ag183
ag183
ag183
ag183
ag183
ag183
ag183
ag183
ag183
ag183
ag183
ag183
ag183
ag183
ag183
ag183
ag183
ag183
ag183
ag183
ag183
ag183
ag183
ag183
ag183
ag183
ag183
ag183
ag183
ag183
ag183
ag183
ag183
ag183
ag183
ag183
ag183
ag183
ag183
ag183
ag183
ag183
ag183
ag183
ag183
ag183
ag183
ag183
ag183
ag183
ag183
ag183
ag183
ag183
ag183
ag183
ag183
ag183
ag183
ag183
ag183
ag183
ag183
ag183
ag183
ag183
ag183
ag183
ag183
ag183
ag183
ag183
ag183
ag183
ag183
ag183
ag183
ag183
ag183
ag183
ag183
ag183
ag183
ag183
ag183
ag183
ag183
ag183
ag183
ag183
ag183
ag183
ag183
ag183
ag183
ag183
ag183
ag183
ag183
ag183
ag183
ag183
ag183
ag183
ag183
ag183
ag183
ag183
ag183
ag183
ag183
ag183
a(I18
I3
tp184
a(I15
I2
tp185
ag185
ag185
ag185
ag185
ag185
ag185
ag185
ag185
ag185
a(I39
I1
tp186
ag186
ag186
ag186
ag186
ag186
ag186
ag186
ag186
ag186
ag186
ag186
ag186
ag186
ag186
ag186
ag186
ag186
ag186
ag186
ag186
ag186
ag186
ag186
ag186
ag186
ag186
ag186
ag186
ag186
ag186
ag186
ag186
ag186
ag186
ag186
ag186
ag186
ag186
ag186
ag186
ag186
ag186
ag186
ag186
ag186
ag186
ag186
ag186
ag186
ag186
ag186
ag186
ag186
ag186
ag186
ag186
ag186
ag186
ag186
ag186
ag186
ag186
ag186
ag186
ag186
ag186
ag186
ag186
ag186
ag186
ag186
ag186
ag186
ag186
ag186
ag186
ag186
ag186
ag186
ag186
ag186
ag186
ag186
ag186
ag186
ag186
ag186
ag186
ag186
ag186
ag186
ag186
ag186
ag186
ag186
ag186
ag186
ag186
ag186
ag186
ag186
ag186
ag186
ag186
ag186
ag186
ag186
ag186
ag186
ag186
ag186
ag186
ag186
ag186
ag186
ag186
ag186
ag186
ag186
ag186
ag186
ag186
ag186
ag186
a(I20
I2
tp187
ag187
ag187
ag187
ag187
ag187
ag187
ag187
ag187
ag187
ag187
ag187
ag187
ag187
ag187
ag187
ag187
ag187
ag187
ag187
ag187
ag187
ag187
ag187
ag187
ag187
ag187
ag187
ag187
ag187
ag187
ag187
ag187
ag187
ag187
ag187
ag187
ag187
ag187
ag187
ag187
ag187
ag187
ag187
ag187
ag187
ag187
ag187
ag187
ag187
ag187
ag187
ag187
ag187
ag187
ag187
ag187
ag187
ag187
ag187
ag187
ag187
ag187
ag187
ag187
ag187
ag187
ag187
ag187
ag187
ag187
ag187
ag187
ag187
ag187
ag187
ag187
ag187
ag187
ag187
ag187
ag187
ag187
ag187
ag187
ag187
ag187
ag187
ag187
ag187
ag187
ag187
ag187
ag187
ag187
ag187
ag187
ag187
ag187
ag187
ag187
ag187
ag187
ag187
ag187
ag187
ag187
ag187
ag187
ag187
ag187
a(I49
I1
tp188
ag188
ag188
ag188
ag188
ag188
ag188
ag188
ag188
ag188
ag188
ag188
ag188
ag188
ag188
ag188
ag188
ag188
ag188
ag188
ag188
ag188
ag188
ag188
ag188
ag188
ag188
ag188
ag188
ag188
ag188
ag188
ag188
a(I21
I3
tp189
a(I51
I2
tp190
ag190
ag190
ag190
ag190
ag190
ag190
ag190
ag190
ag190
ag190
ag190
ag190
ag190
ag190
ag190
ag190
ag190
ag190
ag190
ag190
ag190
ag190
ag190
ag190
ag190
ag190
ag190
ag190
ag190
ag190
ag190
ag190
ag190
ag190
ag190
ag190
ag190
ag190
ag190
ag190
ag190
ag190
ag190
ag190
ag190
ag190
ag190
ag190
ag190
ag190
ag190
ag190
ag190
ag190
ag190
ag190
ag190
ag190
ag190
ag190
ag190
ag190
ag190
ag190
ag190
ag190
ag190
ag190
ag190
ag190
ag190
ag190
ag190
ag190
ag190
ag190
ag190
ag190
ag190
ag190
a(I56
I2
tp191
ag191
ag191
ag191
ag191
ag191
ag191
ag191
ag191
ag191
ag191
ag191
ag191
ag191
ag191
ag191
ag191
ag191
ag191
ag191
ag191
ag191
ag191
ag191
ag191
ag191
ag191
ag191
ag191
ag191
ag191
ag191
ag191
ag191
ag191
ag191
ag191
ag191
ag191
ag191
ag191
ag191
ag191
ag191
ag191
ag191
ag191
ag191
ag191
ag191
ag191
ag191
ag191
a(I4
I3
tp192
a(I57
I3
tp193
a(I5
I2
tp194
ag194
ag194
ag194
ag194
ag194
ag194
ag194
ag194
ag194
ag194
ag194
ag194
ag194
ag194
ag194
ag194
ag194
ag194
ag194
a(I10
I2
tp195
ag195
ag195
ag195
ag195
ag195
ag195
ag195
ag195
ag195
ag195
ag195
ag195
ag195
ag195
ag195
ag195
ag195
ag195
ag195
ag195
ag195
ag195
ag195
ag195
ag195
ag195
ag195
ag195
ag195
ag195
ag195
ag195
ag195
ag195
ag195
ag195
ag195
ag195
ag195
ag195
a.